target datalayout = "e-m:e-p270:32:32-p271:32:32-p272:64:64-i64:64-i128:128-f80:128-n8:16:32:64-S128"
target triple = "x86_64-pc-linux-gnu"

@.str.12 = private unnamed_addr constant [5 x i8] c"seed\00", align 1
@.str.30 = private unnamed_addr constant [32 x i8] c"../openssl/test/endecode_test.c\00", align 1
@bnctx = internal global ptr null, align 8
@do_create_ec_explicit_prime_params.prime_data = internal constant [33 x i8] c"\00\FF\FF\FF\FF\00\00\00\01\00\00\00\00\00\00\00\00\00\00\00\00\FF\FF\FF\FF\FF\FF\FF\FF\FF\FF\FF\FF", align 16
@do_create_ec_explicit_prime_params.a_data = internal constant [33 x i8] c"\00\FF\FF\FF\FF\00\00\00\01\00\00\00\00\00\00\00\00\00\00\00\00\FF\FF\FF\FF\FF\FF\FF\FF\FF\FF\FF\FC", align 16
@do_create_ec_explicit_prime_params.b_data = internal constant [32 x i8] c"Z\C65\D8\AA:\93\E7\B3\EB\BDUv\98\86\BCe\1D\06\B0\CCS\B0\F6;\CE<>'\D2`K", align 16
@do_create_ec_explicit_prime_params.seed = internal constant [20 x i8] c"\C4\9D6\08\86\E7\04\93jfx\E1\13\9D&\B7\81\9F~\90", align 16
@do_create_ec_explicit_prime_params.order_data = internal constant [33 x i8] c"\00\FF\FF\FF\FF\00\00\00\00\FF\FF\FF\FF\FF\FF\FF\FF\BC\E6\FA\AD\A7\17\9E\84\F3\B9\CA\C2\FCc%Q", align 16
@.str.249 = private unnamed_addr constant [22 x i8] c"a = BN_CTX_get(bnctx)\00", align 1
@.str.250 = private unnamed_addr constant [22 x i8] c"b = BN_CTX_get(bnctx)\00", align 1
@.str.251 = private unnamed_addr constant [26 x i8] c"prime = BN_CTX_get(bnctx)\00", align 1
@.str.252 = private unnamed_addr constant [26 x i8] c"order = BN_CTX_get(bnctx)\00", align 1
@.str.253 = private unnamed_addr constant [49 x i8] c"BN_bin2bn(prime_data, sizeof(prime_data), prime)\00", align 1
@.str.254 = private unnamed_addr constant [37 x i8] c"BN_bin2bn(a_data, sizeof(a_data), a)\00", align 1
@.str.255 = private unnamed_addr constant [37 x i8] c"BN_bin2bn(b_data, sizeof(b_data), b)\00", align 1
@.str.256 = private unnamed_addr constant [49 x i8] c"BN_bin2bn(order_data, sizeof(order_data), order)\00", align 1
@.str.257 = private unnamed_addr constant [93 x i8] c"OSSL_PARAM_BLD_push_utf8_string(bld, OSSL_PKEY_PARAM_EC_FIELD_TYPE, SN_X9_62_prime_field, 0)\00", align 1
@.str.258 = private unnamed_addr constant [11 x i8] c"field-type\00", align 1
@.str.259 = private unnamed_addr constant [12 x i8] c"prime-field\00", align 1
@.str.260 = private unnamed_addr constant [57 x i8] c"OSSL_PARAM_BLD_push_BN(bld, OSSL_PKEY_PARAM_EC_P, prime)\00", align 1
@.str.261 = private unnamed_addr constant [2 x i8] c"p\00", align 1
@.str.262 = private unnamed_addr constant [53 x i8] c"OSSL_PARAM_BLD_push_BN(bld, OSSL_PKEY_PARAM_EC_A, a)\00", align 1
@.str.263 = private unnamed_addr constant [2 x i8] c"a\00", align 1
@.str.264 = private unnamed_addr constant [53 x i8] c"OSSL_PARAM_BLD_push_BN(bld, OSSL_PKEY_PARAM_EC_B, b)\00", align 1
@.str.265 = private unnamed_addr constant [2 x i8] c"b\00", align 1
@.str.266 = private unnamed_addr constant [61 x i8] c"OSSL_PARAM_BLD_push_BN(bld, OSSL_PKEY_PARAM_EC_ORDER, order)\00", align 1
@.str.267 = private unnamed_addr constant [6 x i8] c"order\00", align 1
@.str.268 = private unnamed_addr constant [82 x i8] c"OSSL_PARAM_BLD_push_octet_string(bld, OSSL_PKEY_PARAM_EC_GENERATOR, gen, gen_len)\00", align 1
@.str.269 = private unnamed_addr constant [10 x i8] c"generator\00", align 1
@.str.270 = private unnamed_addr constant [83 x i8] c"OSSL_PARAM_BLD_push_octet_string(bld, OSSL_PKEY_PARAM_EC_SEED, seed, sizeof(seed))\00", align 1
@.str.271 = private unnamed_addr constant [73 x i8] c"OSSL_PARAM_BLD_push_BN(bld, OSSL_PKEY_PARAM_EC_COFACTOR, BN_value_one())\00", align 1
@.str.272 = private unnamed_addr constant [9 x i8] c"cofactor\00", align 1

; Function Attrs: nounwind uwtable
define internal i32 @do_create_ec_explicit_prime_params(ptr noundef %0, ptr noundef %1, i64 noundef %2) #0 {
  %4 = alloca ptr, align 8
  %5 = alloca ptr, align 8
  %6 = alloca i64, align 8
  %7 = alloca ptr, align 8
  %8 = alloca ptr, align 8
  %9 = alloca ptr, align 8
  %10 = alloca ptr, align 8
  store ptr %0, ptr %4, align 8, !tbaa !19
  store ptr %1, ptr %5, align 8, !tbaa !4
  store i64 %2, ptr %6, align 8, !tbaa !27
  call void @llvm.lifetime.start.p0(i64 8, ptr %7) #7
  call void @llvm.lifetime.start.p0(i64 8, ptr %8) #7
  call void @llvm.lifetime.start.p0(i64 8, ptr %9) #7
  call void @llvm.lifetime.start.p0(i64 8, ptr %10) #7
  %11 = load ptr, ptr @bnctx, align 8, !tbaa !17
  %12 = call ptr @BN_CTX_get(ptr noundef %11)
  store ptr %12, ptr %7, align 8, !tbaa !29
  %13 = call i32 @test_ptr(ptr noundef @.str.30, i32 noundef 1135, ptr noundef @.str.249, ptr noundef %12)
  %14 = icmp ne i32 %13, 0
  br i1 %14, label %15, label %113

15:                                               ; preds = %3
  %16 = load ptr, ptr @bnctx, align 8, !tbaa !17
  %17 = call ptr @BN_CTX_get(ptr noundef %16)
  store ptr %17, ptr %8, align 8, !tbaa !29
  %18 = call i32 @test_ptr(ptr noundef @.str.30, i32 noundef 1136, ptr noundef @.str.250, ptr noundef %17)
  %19 = icmp ne i32 %18, 0
  br i1 %19, label %20, label %113

20:                                               ; preds = %15
  %21 = load ptr, ptr @bnctx, align 8, !tbaa !17
  %22 = call ptr @BN_CTX_get(ptr noundef %21)
  store ptr %22, ptr %9, align 8, !tbaa !29
  %23 = call i32 @test_ptr(ptr noundef @.str.30, i32 noundef 1137, ptr noundef @.str.251, ptr noundef %22)
  %24 = icmp ne i32 %23, 0
  br i1 %24, label %25, label %113

25:                                               ; preds = %20
  %26 = load ptr, ptr @bnctx, align 8, !tbaa !17
  %27 = call ptr @BN_CTX_get(ptr noundef %26)
  store ptr %27, ptr %10, align 8, !tbaa !29
  %28 = call i32 @test_ptr(ptr noundef @.str.30, i32 noundef 1138, ptr noundef @.str.252, ptr noundef %27)
  %29 = icmp ne i32 %28, 0
  br i1 %29, label %30, label %113

30:                                               ; preds = %25
  %31 = load ptr, ptr %9, align 8, !tbaa !29
  %32 = call ptr @BN_bin2bn(ptr noundef @do_create_ec_explicit_prime_params.prime_data, i32 noundef 33, ptr noundef %31)
  %33 = call i32 @test_ptr(ptr noundef @.str.30, i32 noundef 1139, ptr noundef @.str.253, ptr noundef %32)
  %34 = icmp ne i32 %33, 0
  br i1 %34, label %35, label %113

35:                                               ; preds = %30
  %36 = load ptr, ptr %7, align 8, !tbaa !29
  %37 = call ptr @BN_bin2bn(ptr noundef @do_create_ec_explicit_prime_params.a_data, i32 noundef 33, ptr noundef %36)
  %38 = call i32 @test_ptr(ptr noundef @.str.30, i32 noundef 1140, ptr noundef @.str.254, ptr noundef %37)
  %39 = icmp ne i32 %38, 0
  br i1 %39, label %40, label %113

40:                                               ; preds = %35
  %41 = load ptr, ptr %8, align 8, !tbaa !29
  %42 = call ptr @BN_bin2bn(ptr noundef @do_create_ec_explicit_prime_params.b_data, i32 noundef 32, ptr noundef %41)
  %43 = call i32 @test_ptr(ptr noundef @.str.30, i32 noundef 1141, ptr noundef @.str.255, ptr noundef %42)
  %44 = icmp ne i32 %43, 0
  br i1 %44, label %45, label %113

45:                                               ; preds = %40
  %46 = load ptr, ptr %10, align 8, !tbaa !29
  %47 = call ptr @BN_bin2bn(ptr noundef @do_create_ec_explicit_prime_params.order_data, i32 noundef 33, ptr noundef %46)
  %48 = call i32 @test_ptr(ptr noundef @.str.30, i32 noundef 1142, ptr noundef @.str.256, ptr noundef %47)
  %49 = icmp ne i32 %48, 0
  br i1 %49, label %50, label %113

50:                                               ; preds = %45
  %51 = load ptr, ptr %4, align 8, !tbaa !19
  %52 = call i32 @OSSL_PARAM_BLD_push_utf8_string(ptr noundef %51, ptr noundef @.str.258, ptr noundef @.str.259, i64 noundef 0)
  %53 = icmp ne i32 %52, 0
  %54 = zext i1 %53 to i32
  %55 = call i32 @test_true(ptr noundef @.str.30, i32 noundef 1145, ptr noundef @.str.257, i32 noundef %54)
  %56 = icmp ne i32 %55, 0
  br i1 %56, label %57, label %113

57:                                               ; preds = %50
  %58 = load ptr, ptr %4, align 8, !tbaa !19
  %59 = load ptr, ptr %9, align 8, !tbaa !29
  %60 = call i32 @OSSL_PARAM_BLD_push_BN(ptr noundef %58, ptr noundef @.str.261, ptr noundef %59)
  %61 = icmp ne i32 %60, 0
  %62 = zext i1 %61 to i32
  %63 = call i32 @test_true(ptr noundef @.str.30, i32 noundef 1146, ptr noundef @.str.260, i32 noundef %62)
  %64 = icmp ne i32 %63, 0
  br i1 %64, label %65, label %113

65:                                               ; preds = %57
  %66 = load ptr, ptr %4, align 8, !tbaa !19
  %67 = load ptr, ptr %7, align 8, !tbaa !29
  %68 = call i32 @OSSL_PARAM_BLD_push_BN(ptr noundef %66, ptr noundef @.str.263, ptr noundef %67)
  %69 = icmp ne i32 %68, 0
  %70 = zext i1 %69 to i32
  %71 = call i32 @test_true(ptr noundef @.str.30, i32 noundef 1147, ptr noundef @.str.262, i32 noundef %70)
  %72 = icmp ne i32 %71, 0
  br i1 %72, label %73, label %113

73:                                               ; preds = %65
  %74 = load ptr, ptr %4, align 8, !tbaa !19
  %75 = load ptr, ptr %8, align 8, !tbaa !29
  %76 = call i32 @OSSL_PARAM_BLD_push_BN(ptr noundef %74, ptr noundef @.str.265, ptr noundef %75)
  %77 = icmp ne i32 %76, 0
  %78 = zext i1 %77 to i32
  %79 = call i32 @test_true(ptr noundef @.str.30, i32 noundef 1148, ptr noundef @.str.264, i32 noundef %78)
  %80 = icmp ne i32 %79, 0
  br i1 %80, label %81, label %113

81:                                               ; preds = %73
  %82 = load ptr, ptr %4, align 8, !tbaa !19
  %83 = load ptr, ptr %10, align 8, !tbaa !29
  %84 = call i32 @OSSL_PARAM_BLD_push_BN(ptr noundef %82, ptr noundef @.str.267, ptr noundef %83)
  %85 = icmp ne i32 %84, 0
  %86 = zext i1 %85 to i32
  %87 = call i32 @test_true(ptr noundef @.str.30, i32 noundef 1150, ptr noundef @.str.266, i32 noundef %86)
  %88 = icmp ne i32 %87, 0
  br i1 %88, label %89, label %113

89:                                               ; preds = %81
  %90 = load ptr, ptr %4, align 8, !tbaa !19
  %91 = load ptr, ptr %5, align 8, !tbaa !4
  %92 = load i64, ptr %6, align 8, !tbaa !27
  %93 = call i32 @OSSL_PARAM_BLD_push_octet_string(ptr noundef %90, ptr noundef @.str.269, ptr noundef %91, i64 noundef %92)
  %94 = icmp ne i32 %93, 0
  %95 = zext i1 %94 to i32
  %96 = call i32 @test_true(ptr noundef @.str.30, i32 noundef 1152, ptr noundef @.str.268, i32 noundef %95)
  %97 = icmp ne i32 %96, 0
  br i1 %97, label %98, label %113

98:                                               ; preds = %89
  %99 = load ptr, ptr %4, align 8, !tbaa !19
  %100 = call i32 @OSSL_PARAM_BLD_push_octet_string(ptr noundef %99, ptr noundef @.str.12, ptr noundef @do_create_ec_explicit_prime_params.seed, i64 noundef 20)
  %101 = icmp ne i32 %100, 0
  %102 = zext i1 %101 to i32
  %103 = call i32 @test_true(ptr noundef @.str.30, i32 noundef 1154, ptr noundef @.str.270, i32 noundef %102)
  %104 = icmp ne i32 %103, 0
  br i1 %104, label %105, label %113

105:                                              ; preds = %98
  %106 = load ptr, ptr %4, align 8, !tbaa !19
  %107 = call ptr @BN_value_one()
  %108 = call i32 @OSSL_PARAM_BLD_push_BN(ptr noundef %106, ptr noundef @.str.272, ptr noundef %107)
  %109 = icmp ne i32 %108, 0
  %110 = zext i1 %109 to i32
  %111 = call i32 @test_true(ptr noundef @.str.30, i32 noundef 1156, ptr noundef @.str.271, i32 noundef %110)
  %112 = icmp ne i32 %111, 0
  br label %113

113:                                              ; preds = %105, %98, %89, %81, %73, %65, %57, %50, %45, %40, %35, %30, %25, %20, %15, %3
  %114 = phi i1 [ false, %98 ], [ false, %89 ], [ false, %81 ], [ false, %73 ], [ false, %65 ], [ false, %57 ], [ false, %50 ], [ false, %45 ], [ false, %40 ], [ false, %35 ], [ false, %30 ], [ false, %25 ], [ false, %20 ], [ false, %15 ], [ false, %3 ], [ %112, %105 ]
  %115 = zext i1 %114 to i32
  call void @llvm.lifetime.end.p0(i64 8, ptr %10) #7
  call void @llvm.lifetime.end.p0(i64 8, ptr %9) #7
  call void @llvm.lifetime.end.p0(i64 8, ptr %8) #7
  call void @llvm.lifetime.end.p0(i64 8, ptr %7) #7
  ret i32 %115
}