; Function Attrs: nounwind uwtable
define internal fastcc range(i32 0, 2) i32 @do_create_ec_explicit_prime_params(ptr noundef %0, ptr noundef %1) unnamed_addr #1 {
  %3 = load ptr, ptr @bnctx, align 8, !tbaa !15
  %4 = tail call ptr @BN_CTX_get(ptr noundef %3) #8
  %5 = tail call i32 @test_ptr(ptr noundef nonnull @.str.30, i32 noundef 1135, ptr noundef nonnull @.str.249, ptr noundef %4) #8
  %.not = icmp eq i32 %5, 0
  br i1 %.not, label %73, label %6

6:                                                ; preds = %2
  %7 = load ptr, ptr @bnctx, align 8, !tbaa !15
  %8 = tail call ptr @BN_CTX_get(ptr noundef %7) #8
  %9 = tail call i32 @test_ptr(ptr noundef nonnull @.str.30, i32 noundef 1136, ptr noundef nonnull @.str.250, ptr noundef %8) #8
  %.not17 = icmp eq i32 %9, 0
  br i1 %.not17, label %73, label %10

10:                                               ; preds = %6
  %11 = load ptr, ptr @bnctx, align 8, !tbaa !15
  %12 = tail call ptr @BN_CTX_get(ptr noundef %11) #8
  %13 = tail call i32 @test_ptr(ptr noundef nonnull @.str.30, i32 noundef 1137, ptr noundef nonnull @.str.251, ptr noundef %12) #8
  %.not18 = icmp eq i32 %13, 0
  br i1 %.not18, label %73, label %14

14:                                               ; preds = %10
  %15 = load ptr, ptr @bnctx, align 8, !tbaa !15
  %16 = tail call ptr @BN_CTX_get(ptr noundef %15) #8
  %17 = tail call i32 @test_ptr(ptr noundef nonnull @.str.30, i32 noundef 1138, ptr noundef nonnull @.str.252, ptr noundef %16) #8
  %.not19 = icmp eq i32 %17, 0
  br i1 %.not19, label %73, label %18

18:                                               ; preds = %14
  %19 = tail call ptr @BN_bin2bn(ptr noundef nonnull @do_create_ec_explicit_prime_params.prime_data, i32 noundef 33, ptr noundef %12) #8
  %20 = tail call i32 @test_ptr(ptr noundef nonnull @.str.30, i32 noundef 1139, ptr noundef nonnull @.str.253, ptr noundef %19) #8
  %.not20 = icmp eq i32 %20, 0
  br i1 %.not20, label %73, label %21

21:                                               ; preds = %18
  %22 = tail call ptr @BN_bin2bn(ptr noundef nonnull @do_create_ec_explicit_prime_params.a_data, i32 noundef 33, ptr noundef %4) #8
  %23 = tail call i32 @test_ptr(ptr noundef nonnull @.str.30, i32 noundef 1140, ptr noundef nonnull @.str.254, ptr noundef %22) #8
  %.not21 = icmp eq i32 %23, 0
  br i1 %.not21, label %73, label %24

24:                                               ; preds = %21
  %25 = tail call ptr @BN_bin2bn(ptr noundef nonnull @do_create_ec_explicit_prime_params.b_data, i32 noundef 32, ptr noundef %8) #8
  %26 = tail call i32 @test_ptr(ptr noundef nonnull @.str.30, i32 noundef 1141, ptr noundef nonnull @.str.255, ptr noundef %25) #8
  %.not22 = icmp eq i32 %26, 0
  br i1 %.not22, label %73, label %27

27:                                               ; preds = %24
  %28 = tail call ptr @BN_bin2bn(ptr noundef nonnull @do_create_ec_explicit_prime_params.order_data, i32 noundef 33, ptr noundef %16) #8
  %29 = tail call i32 @test_ptr(ptr noundef nonnull @.str.30, i32 noundef 1142, ptr noundef nonnull @.str.256, ptr noundef %28) #8
  %.not23 = icmp eq i32 %29, 0
  br i1 %.not23, label %73, label %30

30:                                               ; preds = %27
  %31 = tail call i32 @OSSL_PARAM_BLD_push_utf8_string(ptr noundef %0, ptr noundef nonnull @.str.258, ptr noundef nonnull @.str.259, i64 noundef 0) #8
  %32 = icmp ne i32 %31, 0
  %33 = zext i1 %32 to i32
  %34 = tail call i32 @test_true(ptr noundef nonnull @.str.30, i32 noundef 1145, ptr noundef nonnull @.str.257, i32 noundef %33) #8
  %.not24 = icmp eq i32 %34, 0
  br i1 %.not24, label %73, label %35

35:                                               ; preds = %30
  %36 = tail call i32 @OSSL_PARAM_BLD_push_BN(ptr noundef %0, ptr noundef nonnull @.str.261, ptr noundef %12) #8
  %37 = icmp ne i32 %36, 0
  %38 = zext i1 %37 to i32
  %39 = tail call i32 @test_true(ptr noundef nonnull @.str.30, i32 noundef 1146, ptr noundef nonnull @.str.260, i32 noundef %38) #8
  %.not25 = icmp eq i32 %39, 0
  br i1 %.not25, label %73, label %40

40:                                               ; preds = %35
  %41 = tail call i32 @OSSL_PARAM_BLD_push_BN(ptr noundef %0, ptr noundef nonnull @.str.263, ptr noundef %4) #8
  %42 = icmp ne i32 %41, 0
  %43 = zext i1 %42 to i32
  %44 = tail call i32 @test_true(ptr noundef nonnull @.str.30, i32 noundef 1147, ptr noundef nonnull @.str.262, i32 noundef %43) #8
  %.not26 = icmp eq i32 %44, 0
  br i1 %.not26, label %73, label %45

45:                                               ; preds = %40
  %46 = tail call i32 @OSSL_PARAM_BLD_push_BN(ptr noundef %0, ptr noundef nonnull @.str.265, ptr noundef %8) #8
  %47 = icmp ne i32 %46, 0
  %48 = zext i1 %47 to i32
  %49 = tail call i32 @test_true(ptr noundef nonnull @.str.30, i32 noundef 1148, ptr noundef nonnull @.str.264, i32 noundef %48) #8
  %.not27 = icmp eq i32 %49, 0
  br i1 %.not27, label %73, label %50

50:                                               ; preds = %45
  %51 = tail call i32 @OSSL_PARAM_BLD_push_BN(ptr noundef %0, ptr noundef nonnull @.str.267, ptr noundef %16) #8
  %52 = icmp ne i32 %51, 0
  %53 = zext i1 %52 to i32
  %54 = tail call i32 @test_true(ptr noundef nonnull @.str.30, i32 noundef 1150, ptr noundef nonnull @.str.266, i32 noundef %53) #8
  %.not28 = icmp eq i32 %54, 0
  br i1 %.not28, label %73, label %55

55:                                               ; preds = %50
  %56 = tail call i32 @OSSL_PARAM_BLD_push_octet_string(ptr noundef %0, ptr noundef nonnull @.str.269, ptr noundef %1, i64 noundef 65) #8
  %57 = icmp ne i32 %56, 0
  %58 = zext i1 %57 to i32
  %59 = tail call i32 @test_true(ptr noundef nonnull @.str.30, i32 noundef 1152, ptr noundef nonnull @.str.268, i32 noundef %58) #8
  %.not29 = icmp eq i32 %59, 0
  br i1 %.not29, label %73, label %60

60:                                               ; preds = %55
  %61 = tail call i32 @OSSL_PARAM_BLD_push_octet_string(ptr noundef %0, ptr noundef nonnull @.str.12, ptr noundef nonnull @do_create_ec_explicit_prime_params.seed, i64 noundef 20) #8
  %62 = icmp ne i32 %61, 0
  %63 = zext i1 %62 to i32
  %64 = tail call i32 @test_true(ptr noundef nonnull @.str.30, i32 noundef 1154, ptr noundef nonnull @.str.270, i32 noundef %63) #8
  %.not30 = icmp eq i32 %64, 0
  br i1 %.not30, label %73, label %65

65:                                               ; preds = %60
  %66 = tail call ptr @BN_value_one() #8
  %67 = tail call i32 @OSSL_PARAM_BLD_push_BN(ptr noundef %0, ptr noundef nonnull @.str.272, ptr noundef %66) #8
  %68 = icmp ne i32 %67, 0
  %69 = zext i1 %68 to i32
  %70 = tail call i32 @test_true(ptr noundef nonnull @.str.30, i32 noundef 1156, ptr noundef nonnull @.str.271, i32 noundef %69) #8
  %71 = icmp ne i32 %70, 0
  %72 = zext i1 %71 to i32
  br label %73

73:                                               ; preds = %65, %60, %55, %50, %45, %40, %35, %30, %27, %24, %21, %18, %14, %10, %6, %2
  %74 = phi i32 [ 0, %60 ], [ 0, %55 ], [ 0, %50 ], [ 0, %45 ], [ 0, %40 ], [ 0, %35 ], [ 0, %30 ], [ 0, %27 ], [ 0, %24 ], [ 0, %21 ], [ 0, %18 ], [ 0, %14 ], [ 0, %10 ], [ 0, %6 ], [ 0, %2 ], [ %72, %65 ]
  ret i32 %74
}